; Function Attrs: mustprogress uwtable
define internal void @_ZZN7rocksdb18WriteUnpreparedTxn32FlushWriteBatchWithSavePointToDBEvEN21SavePointBatchHandler14SingleDeleteCFEjRKNS_5SliceE(ptr dead_on_unwind noalias writable sret(%"class.rocksdb::Status") align 8 %0, ptr noundef nonnull readonly align 8 captures(none) dereferenceable(24) %1, i32 noundef %2, ptr noundef nonnull align 8 dereferenceable(16) %3) unnamed_addr #4 align 2 {
  %5 = getelementptr inbounds nuw i8, ptr %1, i64 8
  %6 = load ptr, ptr %5, align 8, !tbaa !352
  %7 = getelementptr inbounds nuw i8, ptr %1, i64 16
  %8 = load ptr, ptr %7, align 8, !tbaa !679
  %9 = getelementptr inbounds nuw i8, ptr %8, i64 16
  %10 = load ptr, ptr %9, align 8, !tbaa !158
  %11 = getelementptr inbounds nuw i8, ptr %8, i64 8
  %.not10.i.i.i.i = icmp eq ptr %10, null
  br i1 %.not10.i.i.i.i, label %.critedge.i, label %.lr.ph.i.i.i.i

.lr.ph.i.i.i.i:                                   ; preds = %4, %.lr.ph.i.i.i.i
  %.012.i.i.i.i = phi ptr [ %.1.i.i.i.i, %.lr.ph.i.i.i.i ], [ %10, %4 ]
  %.0811.i.i.i.i = phi ptr [ %.19.i.i.i.i, %.lr.ph.i.i.i.i ], [ %11, %4 ]
  %12 = getelementptr inbounds nuw i8, ptr %.012.i.i.i.i, i64 32
  %13 = load i32, ptr %12, align 4, !tbaa !351
  %14 = icmp ult i32 %13, %2
  %.19.i.i.i.i = select i1 %14, ptr %.0811.i.i.i.i, ptr %.012.i.i.i.i
  %.1.in.v.i.i.i.i = select i1 %14, i64 24, i64 16
  %.1.in.i.i.i.i = getelementptr inbounds nuw i8, ptr %.012.i.i.i.i, i64 %.1.in.v.i.i.i.i
  %.1.i.i.i.i = load ptr, ptr %.1.in.i.i.i.i, align 8, !tbaa !159
  %.not.i.i.i.i = icmp eq ptr %.1.i.i.i.i, null
  br i1 %.not.i.i.i.i, label %_ZNKSt3mapIjPN7rocksdb18ColumnFamilyHandleESt4lessIjESaISt4pairIKjS2_EEE11lower_boundERS6_.exit.i, label %.lr.ph.i.i.i.i, !llvm.loop !477

_ZNKSt3mapIjPN7rocksdb18ColumnFamilyHandleESt4lessIjESaISt4pairIKjS2_EEE11lower_boundERS6_.exit.i: ; preds = %.lr.ph.i.i.i.i
  %15 = icmp eq ptr %.19.i.i.i.i, %11
  br i1 %15, label %.critedge.i, label %16

16:                                               ; preds = %_ZNKSt3mapIjPN7rocksdb18ColumnFamilyHandleESt4lessIjESaISt4pairIKjS2_EEE11lower_boundERS6_.exit.i
  %17 = getelementptr inbounds nuw i8, ptr %.19.i.i.i.i, i64 32
  %18 = load i32, ptr %17, align 4, !tbaa !351
  %19 = icmp ult i32 %2, %18
  br i1 %19, label %.critedge.i, label %_ZNKSt3mapIjPN7rocksdb18ColumnFamilyHandleESt4lessIjESaISt4pairIKjS2_EEE2atERS6_.exit

.critedge.i:                                      ; preds = %16, %_ZNKSt3mapIjPN7rocksdb18ColumnFamilyHandleESt4lessIjESaISt4pairIKjS2_EEE11lower_boundERS6_.exit.i, %4
  tail call void @_ZSt20__throw_out_of_rangePKc(ptr noundef nonnull @.str.57) #29
  unreachable

_ZNKSt3mapIjPN7rocksdb18ColumnFamilyHandleESt4lessIjESaISt4pairIKjS2_EEE2atERS6_.exit: ; preds = %16
  %20 = getelementptr inbounds nuw i8, ptr %.19.i.i.i.i, i64 40
  %21 = load ptr, ptr %20, align 8, !tbaa !327
  %22 = load ptr, ptr %6, align 8, !tbaa !155
  %23 = getelementptr inbounds nuw i8, ptr %22, i64 160
  %24 = load ptr, ptr %23, align 8
  tail call void %24(ptr dead_on_unwind writable sret(%"class.rocksdb::Status") align 8 %0, ptr noundef nonnull align 8 dereferenceable(16) %6, ptr noundef %21, ptr noundef nonnull align 8 dereferenceable(16) %3)
  ret void
}